target datalayout = "e-m:e-p270:32:32-p271:32:32-p272:64:64-i64:64-i128:128-f80:128-n8:16:32:64-S128"
target triple = "x86_64-pc-linux-gnu"

%class.LibRaw = type { ptr, %struct.libraw_data_t, ptr, %struct.libraw_internal_data_t, [2048 x %struct.decode], ptr, ptr, [10 x %struct.tiff_ifd_t], %class.libraw_memmgr, %struct.libraw_callbacks_t, { i64, i64 }, { i64, i64 }, { i64, i64 }, ptr, ptr, ptr, i64, ptr, ptr, ptr, ptr }
%struct.libraw_data_t = type { ptr, %struct.libraw_image_sizes_t, %struct.libraw_iparams_t, %struct.libraw_lensinfo_t, %struct.libraw_makernotes_t, %struct.libraw_shootinginfo_t, %struct.libraw_output_params_t, %struct.libraw_raw_unpack_params_t, i32, i32, %struct.libraw_colordata_t, %struct.libraw_imgother_t, %struct.libraw_thumbnail_t, %struct.libraw_thumbnail_list_t, %struct.libraw_rawdata_t, ptr }
%struct.libraw_image_sizes_t = type { i16, i16, i16, i16, i16, i16, i16, i16, i32, double, i32, [8 x [4 x i32]], i16, [2 x %struct.libraw_raw_inset_crop_t] }
%struct.libraw_raw_inset_crop_t = type { i16, i16, i16, i16 }
%struct.libraw_iparams_t = type { [4 x i8], [64 x i8], [64 x i8], [64 x i8], [64 x i8], [64 x i8], i32, i32, i32, i32, i32, i32, [6 x [6 x i8]], [6 x [6 x i8]], [5 x i8], i32, ptr }
%struct.libraw_lensinfo_t = type { float, float, float, float, float, [128 x i8], [128 x i8], [128 x i8], [128 x i8], i16, %struct.libraw_nikonlens_t, %struct.libraw_dnglens_t, %struct.libraw_makernotes_lens_t }
%struct.libraw_nikonlens_t = type { float, i8, i8, i8, i8 }
%struct.libraw_dnglens_t = type { float, float, float, float }
%struct.libraw_makernotes_lens_t = type { i64, [128 x i8], i16, i16, i64, i16, i16, [64 x i8], i16, [16 x i8], [16 x i8], float, float, float, float, float, float, float, float, float, float, float, float, float, float, float, i64, [128 x i8], i64, [128 x i8], i64, [128 x i8], i16, float }
%struct.libraw_makernotes_t = type { %struct.libraw_canon_makernotes_t, %struct.libraw_nikon_makernotes_t, %struct.libraw_hasselblad_makernotes_t, %struct.libraw_fuji_info_t, %struct.libraw_olympus_makernotes_t, %struct.libraw_sony_info_t, %struct.libraw_kodak_makernotes_t, %struct.libraw_panasonic_makernotes_t, %struct.libraw_pentax_makernotes_t, %struct.libraw_p1_makernotes_t, %struct.libraw_ricoh_makernotes_t, %struct.libraw_samsung_makernotes_t, %struct.libraw_metadata_common_t }
%struct.libraw_canon_makernotes_t = type { i32, i32, i32, i32, [4 x i32], i32, [4 x i32], i16, i16, i8, i16, i16, i16, i16, i16, i16, i16, i16, i16, i16, i16, i16, i16, i32, float, i16, i16, i16, i32, i16, i32, i32, i16, i32, %struct.libraw_area_t, %struct.libraw_area_t, %struct.libraw_area_t, %struct.libraw_area_t, %struct.libraw_area_t, [2 x i16] }
%struct.libraw_area_t = type { i16, i16, i16, i16 }
%struct.libraw_nikon_makernotes_t = type { double, i16, i16, [7 x i8], i8, i8, [13 x i8], [20 x i8], [4 x i8], [4 x i8], [4 x i8], i8, i8, i8, i8, i8, [2 x i8], i8, i8, i8, i8, i8, [4 x i8], [4 x i8], i8, i16, i32, i32, i32, i32, [4 x double], i8, i8, i8, i32, i32, i32, i8, [4 x i16], i16, %struct.libraw_sensor_highspeed_crop_t, i16, i16, i16, i32, [20 x i8], [20 x i8], i32, i16, double, double, double }
%struct.libraw_sensor_highspeed_crop_t = type { i16, i16, i16, i16 }
%struct.libraw_hasselblad_makernotes_t = type { i32, double, [8 x i8], [64 x i8], [64 x i8], i32, i32, i32, i32, [32 x i8], [64 x i8], i32, [2 x i32], [2 x i32], [4 x [3 x double]] }
%struct.libraw_fuji_info_t = type { float, i16, i16, i16, i16, i16, i16, i16, i16, [33 x i8], [33 x i8], float, i16, i16, [2 x i16], i16, i32, i32, i16, [3 x i16], i16, i16, i16, i16, i16, i32, i16, [13 x i8], [5 x i8], [5 x i8], i32, i16, i32, i16, [9 x i16], [32 x i32], i32, i32, i32, [2 x float], i32 }
%struct.libraw_olympus_makernotes_t = type { [6 x i8], i16, [2 x i32], [5 x i16], i16, [2 x i16], i16, i16, [64 x i32], [5 x double], i16, i8, [3 x i16], [3 x i32], i16, i16, i16, i16, double, [4 x i16], [2 x i32], i8, i32, i16, i16 }
%struct.libraw_sony_info_t = type { i16, i8, i8, i32, i8, i32, i8, i8, i16, [2 x i16], i8, i8, i16, [10 x i8], i8, i8, [4 x i16], i16, i8, i8, i8, i16, i32, i16, [2 x i16], i16, i16, i16, i16, i16, i16, i16, i32, float, i16, i32, i32, i16, [20 x i8], i32, i16, i32, i8, i8, i16, i16, i16, i16, i16, i16, i16, i16, i16, i32, i16, [16 x i8], float }
%struct.libraw_kodak_makernotes_t = type { i16, i16, i16, i16, i16, i16, [3 x [3 x float]], [3 x [3 x float]], [3 x [3 x float]], [3 x [3 x float]], [3 x [3 x float]], [3 x [3 x float]], i16, i16, i16, i16, float, float }
%struct.libraw_panasonic_makernotes_t = type { i16, i16, [8 x float], i32, float, [3 x i32], i16, i16, i32, i32 }
%struct.libraw_pentax_makernotes_t = type { [4 x i8], [2 x i16], [2 x i16], i16, i32, i32, i16, i16, i8, i8, i16 }
%struct.libraw_p1_makernotes_t = type { [64 x i8], [64 x i8], [256 x i8], [64 x i8] }
%struct.libraw_ricoh_makernotes_t = type { i16, [2 x i32], [2 x i32], i16, i32, i32, i32, i32, i16, i16, i16, i16, i16, i16, double, double }
%struct.libraw_samsung_makernotes_t = type { [4 x i32], [4 x i32], [2 x i32], [11 x i32], double, i32, [32 x i8] }
%struct.libraw_metadata_common_t = type { float, float, float, float, float, float, float, float, float, float, float, float, float, float, float, float, i16, [128 x i8], float, [4 x %struct.libraw_afinfo_item_t], i32 }
%struct.libraw_afinfo_item_t = type { i32, i16, i32, i32, ptr }
%struct.libraw_shootinginfo_t = type { i16, i16, i16, i16, i16, i16, i16, [64 x i8], [64 x i8] }
%struct.libraw_output_params_t = type { [4 x i32], [4 x i32], [4 x double], [6 x double], [4 x float], float, float, i32, i32, i32, i32, i32, i32, i32, ptr, ptr, ptr, ptr, i32, i32, i32, i32, i32, i32, [4 x i32], i32, i32, float, float, i32, i32, i32, i32, i32, i32, i32, i32, float, float, i32, i32 }
%struct.libraw_raw_unpack_params_t = type { i32, i32, i32, i32, i32, i32, i32, float, [5 x i8], ptr }
%struct.libraw_colordata_t = type { [65536 x i16], [4104 x i32], i32, i32, i32, [4 x i64], float, float, [8 x [8 x i16]], [4 x float], [4 x float], [3 x [4 x float]], [3 x [4 x float]], [3 x [4 x float]], [4 x [3 x float]], %struct.ph1_t, float, float, [64 x i8], [64 x i8], [64 x i8], [64 x i8], [17 x i8], [64 x i8], ptr, i32, [8 x i32], [2 x %struct.libraw_dng_color_t], %struct.libraw_dng_levels_t, [256 x [4 x i32]], [64 x [5 x float]], i32, [2 x %struct.libraw_P1_color_t], i32, i32 }
%struct.ph1_t = type { i32, i32, i32, i32, i32, i32, i32, i32, float }
%struct.libraw_dng_color_t = type { i32, i16, [4 x [4 x float]], [4 x [3 x float]], [3 x [4 x float]] }
%struct.libraw_dng_levels_t = type { i32, [4104 x i32], i32, [4104 x float], float, [4 x i32], [4 x i16], [4 x float], i32, [4 x float], [4 x float], float, float }
%struct.libraw_P1_color_t = type { [9 x float] }
%struct.libraw_imgother_t = type { float, float, float, float, i64, i32, [32 x i32], %struct.libraw_gps_info_t, [512 x i8], [64 x i8], [4 x float] }
%struct.libraw_gps_info_t = type { [3 x float], [3 x float], [3 x float], float, i8, i8, i8, i8, i8 }
%struct.libraw_thumbnail_t = type { i32, i16, i16, i32, i32, ptr }
%struct.libraw_thumbnail_list_t = type { i32, [8 x %struct.libraw_thumbnail_item_t] }
%struct.libraw_thumbnail_item_t = type { i32, i16, i16, i16, i32, i32, i64 }
%struct.libraw_rawdata_t = type { ptr, ptr, ptr, ptr, ptr, ptr, ptr, ptr, ptr, %struct.libraw_iparams_t, %struct.libraw_image_sizes_t, %struct.libraw_internal_output_params_t, %struct.libraw_colordata_t }
%struct.libraw_internal_output_params_t = type { i32, i32, i32, i16, i16 }
%struct.libraw_internal_data_t = type { %struct.internal_data_t, %struct.libraw_internal_output_params_t, %struct.output_data_t, %struct.identify_data_t, %struct.unpacker_data_t }
%struct.internal_data_t = type { ptr, ptr, i32, ptr, i64, i64, [4 x i32] }
%struct.output_data_t = type { ptr, ptr }
%struct.identify_data_t = type { i32, i64, i64, i32, i32, i32 }
%struct.unpacker_data_t = type { i16, [4 x i16], [3 x i16], i32, i64, i64, i64, i64, i64, i64, i32, i32, i32, i32, i32, i32, i32, i32, i32, i32, i32, i32, i32, i32, i32, i32, i32, i64, i32, i32, i32, i32, i32, i32, i32, i32, i32, %struct.pana8_tags_t, [16 x %struct.crx_data_header_t], i32, i32, i16, i16, i32, i32, i32, i32, i32, i32, i32, [20 x i32], i16 }
%struct.pana8_tags_t = type { [6 x i32], [6 x i16], i16, [4 x i16], [17 x i16], [17 x i16], [17 x i16], i16, i16, [5 x i64], [5 x i16], [5 x i32], [5 x i16], [5 x i16] }
%struct.crx_data_header_t = type { i32, i32, i32, i32, i32, i32, i32, i32, i32, i32, i32, i32, i32, i32, i32, i64, i32, ptr, i32, i32, i32, ptr, i32, ptr }
%struct.decode = type { [2 x ptr], i32 }
%struct.tiff_ifd_t = type { i32, i32, i32, i32, i32, i32, i32, i32, i32, i32, i32, i32, i32, i32, i32, ptr, i32, ptr, i32, i32, i32, i32, i32, i32, i32, float, i64, i64, i32, [2 x %struct.libraw_dng_color_t], %struct.libraw_dng_levels_t, i32 }
%class.libraw_memmgr = type <{ ptr, i32, [4 x i8] }>
%struct.libraw_callbacks_t = type { ptr, ptr, ptr, ptr, ptr, ptr, ptr, ptr, ptr, ptr, ptr, ptr, ptr, ptr, ptr, ptr, ptr }

; Function Attrs: mustprogress uwtable
define void @_ZN6LibRaw16smal_v9_load_rawEv(ptr noundef nonnull align 8 dereferenceable(767680) %0) #0 align 2 {
  %2 = alloca ptr, align 8
  %3 = alloca [256 x [2 x i32]], align 16
  %4 = alloca i32, align 4
  %5 = alloca i32, align 4
  %6 = alloca i32, align 4
  %7 = alloca i32, align 4
  store ptr %0, ptr %2, align 8, !tbaa !6
  %8 = load ptr, ptr %2, align 8
  call void @llvm.lifetime.start.p0(i64 2048, ptr %3) #6
  call void @llvm.lifetime.start.p0(i64 4, ptr %4) #6
  call void @llvm.lifetime.start.p0(i64 4, ptr %5) #6
  call void @llvm.lifetime.start.p0(i64 4, ptr %6) #6
  call void @llvm.lifetime.start.p0(i64 4, ptr %7) #6
  %9 = getelementptr inbounds nuw %class.LibRaw, ptr %8, i32 0, i32 3
  %10 = getelementptr inbounds nuw %struct.libraw_internal_data_t, ptr %9, i32 0, i32 0
  %11 = getelementptr inbounds nuw %struct.internal_data_t, ptr %10, i32 0, i32 0
  %12 = load ptr, ptr %11, align 8, !tbaa !17
  %13 = load ptr, ptr %12, align 8, !tbaa !76
  %14 = getelementptr inbounds ptr, ptr %13, i64 4
  %15 = load ptr, ptr %14, align 8
  %16 = call noundef i32 %15(ptr noundef nonnull align 8 dereferenceable(8) %12, i64 noundef 67, i32 noundef 0)
  %17 = call noundef i32 @_ZN6LibRaw4get4Ev(ptr noundef nonnull align 8 dereferenceable(767680) %8)
  store i32 %17, ptr %4, align 4, !tbaa !13
  %18 = getelementptr inbounds nuw %class.LibRaw, ptr %8, i32 0, i32 3
  %19 = getelementptr inbounds nuw %struct.libraw_internal_data_t, ptr %18, i32 0, i32 0
  %20 = getelementptr inbounds nuw %struct.internal_data_t, ptr %19, i32 0, i32 0
  %21 = load ptr, ptr %20, align 8, !tbaa !17
  %22 = load ptr, ptr %21, align 8, !tbaa !76
  %23 = getelementptr inbounds ptr, ptr %22, i64 7
  %24 = load ptr, ptr %23, align 8
  %25 = call noundef i32 %24(ptr noundef nonnull align 8 dereferenceable(8) %21)
  %26 = trunc i32 %25 to i8
  %27 = zext i8 %26 to i32
  store i32 %27, ptr %5, align 4, !tbaa !13
  %28 = getelementptr inbounds nuw %class.LibRaw, ptr %8, i32 0, i32 3
  %29 = getelementptr inbounds nuw %struct.libraw_internal_data_t, ptr %28, i32 0, i32 0
  %30 = getelementptr inbounds nuw %struct.internal_data_t, ptr %29, i32 0, i32 0
  %31 = load ptr, ptr %30, align 8, !tbaa !17
  %32 = load i32, ptr %4, align 4, !tbaa !13
  %33 = zext i32 %32 to i64
  %34 = load ptr, ptr %31, align 8, !tbaa !76
  %35 = getelementptr inbounds ptr, ptr %34, i64 4
  %36 = load ptr, ptr %35, align 8
  %37 = call noundef i32 %36(ptr noundef nonnull align 8 dereferenceable(8) %31, i64 noundef %33, i32 noundef 0)
  store i32 0, ptr %7, align 4, !tbaa !13
  br label %38

38:                                               ; preds = %60, %1
  %39 = load i32, ptr %7, align 4, !tbaa !13
  %40 = load i32, ptr %5, align 4, !tbaa !13
  %41 = mul i32 %40, 2
  %42 = icmp ult i32 %39, %41
  br i1 %42, label %43, label %63

43:                                               ; preds = %38
  %44 = call noundef i32 @_ZN6LibRaw4get4Ev(ptr noundef nonnull align 8 dereferenceable(767680) %8)
  %45 = zext i32 %44 to i64
  %46 = getelementptr inbounds nuw %class.LibRaw, ptr %8, i32 0, i32 3
  %47 = getelementptr inbounds nuw %struct.libraw_internal_data_t, ptr %46, i32 0, i32 4
  %48 = getelementptr inbounds nuw %struct.unpacker_data_t, ptr %47, i32 0, i32 5
  %49 = load i64, ptr %48, align 8, !tbaa !99
  %50 = load i32, ptr %7, align 4, !tbaa !13
  %51 = and i32 %50, 1
  %52 = zext i32 %51 to i64
  %53 = mul nsw i64 %49, %52
  %54 = add nsw i64 %45, %53
  %55 = trunc i64 %54 to i32
  %56 = getelementptr inbounds [256 x [2 x i32]], ptr %3, i64 0, i64 0
  %57 = load i32, ptr %7, align 4, !tbaa !13
  %58 = zext i32 %57 to i64
  %59 = getelementptr inbounds nuw i32, ptr %56, i64 %58
  store i32 %55, ptr %59, align 4, !tbaa !13
  br label %60

60:                                               ; preds = %43
  %61 = load i32, ptr %7, align 4, !tbaa !13
  %62 = add i32 %61, 1
  store i32 %62, ptr %7, align 4, !tbaa !13
  br label %38, !llvm.loop !100

63:                                               ; preds = %38
  %64 = getelementptr inbounds nuw %class.LibRaw, ptr %8, i32 0, i32 3
  %65 = getelementptr inbounds nuw %struct.libraw_internal_data_t, ptr %64, i32 0, i32 0
  %66 = getelementptr inbounds nuw %struct.internal_data_t, ptr %65, i32 0, i32 0
  %67 = load ptr, ptr %66, align 8, !tbaa !17
  %68 = load ptr, ptr %67, align 8, !tbaa !76
  %69 = getelementptr inbounds ptr, ptr %68, i64 4
  %70 = load ptr, ptr %69, align 8
  %71 = call noundef i32 %70(ptr noundef nonnull align 8 dereferenceable(8) %67, i64 noundef 78, i32 noundef 0)
  %72 = getelementptr inbounds nuw %class.LibRaw, ptr %8, i32 0, i32 3
  %73 = getelementptr inbounds nuw %struct.libraw_internal_data_t, ptr %72, i32 0, i32 0
  %74 = getelementptr inbounds nuw %struct.internal_data_t, ptr %73, i32 0, i32 0
  %75 = load ptr, ptr %74, align 8, !tbaa !17
  %76 = load ptr, ptr %75, align 8, !tbaa !76
  %77 = getelementptr inbounds ptr, ptr %76, i64 7
  %78 = load ptr, ptr %77, align 8
  %79 = call noundef i32 %78(ptr noundef nonnull align 8 dereferenceable(8) %75)
  store i32 %79, ptr %6, align 4, !tbaa !13
  %80 = getelementptr inbounds nuw %class.LibRaw, ptr %8, i32 0, i32 3
  %81 = getelementptr inbounds nuw %struct.libraw_internal_data_t, ptr %80, i32 0, i32 0
  %82 = getelementptr inbounds nuw %struct.internal_data_t, ptr %81, i32 0, i32 0
  %83 = load ptr, ptr %82, align 8, !tbaa !17
  %84 = load ptr, ptr %83, align 8, !tbaa !76
  %85 = getelementptr inbounds ptr, ptr %84, i64 4
  %86 = load ptr, ptr %85, align 8
  %87 = call noundef i32 %86(ptr noundef nonnull align 8 dereferenceable(8) %83, i64 noundef 88, i32 noundef 0)
  %88 = getelementptr inbounds nuw %class.LibRaw, ptr %8, i32 0, i32 1
  %89 = getelementptr inbounds nuw %struct.libraw_data_t, ptr %88, i32 0, i32 1
  %90 = getelementptr inbounds nuw %struct.libraw_image_sizes_t, ptr %89, i32 0, i32 0
  %91 = load i16, ptr %90, align 8, !tbaa !79
  %92 = zext i16 %91 to i32
  %93 = getelementptr inbounds nuw %class.LibRaw, ptr %8, i32 0, i32 1
  %94 = getelementptr inbounds nuw %struct.libraw_data_t, ptr %93, i32 0, i32 1
  %95 = getelementptr inbounds nuw %struct.libraw_image_sizes_t, ptr %94, i32 0, i32 1
  %96 = load i16, ptr %95, align 2, !tbaa !78
  %97 = zext i16 %96 to i32
  %98 = mul nsw i32 %92, %97
  %99 = load i32, ptr %5, align 4, !tbaa !13
  %100 = zext i32 %99 to i64
  %101 = getelementptr inbounds nuw [256 x [2 x i32]], ptr %3, i64 0, i64 %100
  %102 = getelementptr inbounds [2 x i32], ptr %101, i64 0, i64 0
  store i32 %98, ptr %102, align 8, !tbaa !13
  %103 = call noundef i32 @_ZN6LibRaw4get4Ev(ptr noundef nonnull align 8 dereferenceable(767680) %8)
  %104 = zext i32 %103 to i64
  %105 = getelementptr inbounds nuw %class.LibRaw, ptr %8, i32 0, i32 3
  %106 = getelementptr inbounds nuw %struct.libraw_internal_data_t, ptr %105, i32 0, i32 4
  %107 = getelementptr inbounds nuw %struct.unpacker_data_t, ptr %106, i32 0, i32 5
  %108 = load i64, ptr %107, align 8, !tbaa !99
  %109 = add nsw i64 %104, %108
  %110 = trunc i64 %109 to i32
  %111 = load i32, ptr %5, align 4, !tbaa !13
  %112 = zext i32 %111 to i64
  %113 = getelementptr inbounds nuw [256 x [2 x i32]], ptr %3, i64 0, i64 %112
  %114 = getelementptr inbounds [2 x i32], ptr %113, i64 0, i64 1
  store i32 %110, ptr %114, align 4, !tbaa !13
  store i32 0, ptr %7, align 4, !tbaa !13
  br label %115

115:                                              ; preds = %125, %63
  %116 = load i32, ptr %7, align 4, !tbaa !13
  %117 = load i32, ptr %5, align 4, !tbaa !13
  %118 = icmp ult i32 %116, %117
  br i1 %118, label %119, label %128

119:                                              ; preds = %115
  %120 = getelementptr inbounds [256 x [2 x i32]], ptr %3, i64 0, i64 0
  %121 = load i32, ptr %7, align 4, !tbaa !13
  %122 = zext i32 %121 to i64
  %123 = getelementptr inbounds nuw [2 x i32], ptr %120, i64 %122
  %124 = load i32, ptr %6, align 4, !tbaa !13
  call void @_ZN6LibRaw19smal_decode_segmentEPA2_ji(ptr noundef nonnull align 8 dereferenceable(767680) %8, ptr noundef %123, i32 noundef %124)
  br label %125

125:                                              ; preds = %119
  %126 = load i32, ptr %7, align 4, !tbaa !13
  %127 = add i32 %126, 1
  store i32 %127, ptr %7, align 4, !tbaa !13
  br label %115, !llvm.loop !101

128:                                              ; preds = %115
  %129 = load i32, ptr %6, align 4, !tbaa !13
  %130 = icmp ne i32 %129, 0
  br i1 %130, label %131, label %133

131:                                              ; preds = %128
  %132 = load i32, ptr %6, align 4, !tbaa !13
  call void @_ZN6LibRaw10fill_holesEi(ptr noundef nonnull align 8 dereferenceable(767680) %8, i32 noundef %132)
  br label %133

133:                                              ; preds = %131, %128
  call void @llvm.lifetime.end.p0(i64 4, ptr %7) #6
  call void @llvm.lifetime.end.p0(i64 4, ptr %6) #6
  call void @llvm.lifetime.end.p0(i64 4, ptr %5) #6
  call void @llvm.lifetime.end.p0(i64 4, ptr %4) #6
  call void @llvm.lifetime.end.p0(i64 2048, ptr %3) #6
  ret void
}