; Function Attrs: mustprogress uwtable
define void @_ZN6LibRaw16smal_v9_load_rawEv(ptr noundef nonnull align 8 dereferenceable(767680) %0) local_unnamed_addr #0 align 2 {
  %2 = alloca [256 x [2 x i32]], align 16
  call void @llvm.lifetime.start.p0(i64 2048, ptr nonnull %2) #8
  %3 = getelementptr inbounds nuw i8, ptr %0, i64 381416
  %4 = load ptr, ptr %3, align 8, !tbaa !6
  %5 = load ptr, ptr %4, align 8, !tbaa !72
  %6 = getelementptr inbounds nuw i8, ptr %5, i64 32
  %7 = load ptr, ptr %6, align 8
  %8 = tail call noundef i32 %7(ptr noundef nonnull align 8 dereferenceable(8) %4, i64 noundef 67, i32 noundef 0)
  %9 = tail call noundef i32 @_ZN6LibRaw4get4Ev(ptr noundef nonnull align 8 dereferenceable(767680) %0)
  %10 = load ptr, ptr %3, align 8, !tbaa !6
  %11 = load ptr, ptr %10, align 8, !tbaa !72
  %12 = getelementptr inbounds nuw i8, ptr %11, i64 56
  %13 = load ptr, ptr %12, align 8
  %14 = tail call noundef i32 %13(ptr noundef nonnull align 8 dereferenceable(8) %10)
  %15 = and i32 %14, 255
  %16 = load ptr, ptr %3, align 8, !tbaa !6
  %17 = zext i32 %9 to i64
  %18 = load ptr, ptr %16, align 8, !tbaa !72
  %19 = getelementptr inbounds nuw i8, ptr %18, i64 32
  %20 = load ptr, ptr %19, align 8
  %21 = tail call noundef i32 %20(ptr noundef nonnull align 8 dereferenceable(8) %16, i64 noundef %17, i32 noundef 0)
  %.not21 = icmp eq i32 %15, 0
  br i1 %.not21, label %._crit_edge, label %.lr.ph

.lr.ph:                                           ; preds = %1
  %22 = shl nuw nsw i32 %15, 1
  %23 = getelementptr inbounds nuw i8, ptr %0, i64 381584
  %wide.trip.count = zext nneg i32 %22 to i64
  br label %24

24:                                               ; preds = %.lr.ph, %24
  %indvars.iv = phi i64 [ 0, %.lr.ph ], [ %indvars.iv.next, %24 ]
  %25 = tail call noundef i32 @_ZN6LibRaw4get4Ev(ptr noundef nonnull align 8 dereferenceable(767680) %0)
  %26 = load i64, ptr %23, align 8, !tbaa !96
  %27 = trunc i64 %26 to i32
  %28 = trunc i64 %indvars.iv to i1
  %29 = select i1 %28, i32 %27, i32 0
  %30 = add i32 %29, %25
  %31 = getelementptr inbounds nuw i32, ptr %2, i64 %indvars.iv
  store i32 %30, ptr %31, align 4, !tbaa !71
  %indvars.iv.next = add nuw nsw i64 %indvars.iv, 1
  %exitcond.not = icmp eq i64 %indvars.iv.next, %wide.trip.count
  br i1 %exitcond.not, label %._crit_edge, label %24, !llvm.loop !97

._crit_edge:                                      ; preds = %24, %1
  %32 = load ptr, ptr %3, align 8, !tbaa !6
  %33 = load ptr, ptr %32, align 8, !tbaa !72
  %34 = getelementptr inbounds nuw i8, ptr %33, i64 32
  %35 = load ptr, ptr %34, align 8
  %36 = tail call noundef i32 %35(ptr noundef nonnull align 8 dereferenceable(8) %32, i64 noundef 78, i32 noundef 0)
  %37 = load ptr, ptr %3, align 8, !tbaa !6
  %38 = load ptr, ptr %37, align 8, !tbaa !72
  %39 = getelementptr inbounds nuw i8, ptr %38, i64 56
  %40 = load ptr, ptr %39, align 8
  %41 = tail call noundef i32 %40(ptr noundef nonnull align 8 dereferenceable(8) %37)
  %42 = load ptr, ptr %3, align 8, !tbaa !6
  %43 = load ptr, ptr %42, align 8, !tbaa !72
  %44 = getelementptr inbounds nuw i8, ptr %43, i64 32
  %45 = load ptr, ptr %44, align 8
  %46 = tail call noundef i32 %45(ptr noundef nonnull align 8 dereferenceable(8) %42, i64 noundef 88, i32 noundef 0)
  %47 = getelementptr inbounds nuw i8, ptr %0, i64 16
  %48 = load i16, ptr %47, align 8, !tbaa !75
  %49 = zext i16 %48 to i32
  %50 = getelementptr inbounds nuw i8, ptr %0, i64 18
  %51 = load i16, ptr %50, align 2, !tbaa !74
  %52 = zext i16 %51 to i32
  %53 = mul nuw nsw i32 %52, %49
  %54 = zext nneg i32 %15 to i64
  %55 = getelementptr inbounds nuw [256 x [2 x i32]], ptr %2, i64 0, i64 %54
  store i32 %53, ptr %55, align 8, !tbaa !71
  %56 = tail call noundef i32 @_ZN6LibRaw4get4Ev(ptr noundef nonnull align 8 dereferenceable(767680) %0)
  %57 = getelementptr inbounds nuw i8, ptr %0, i64 381584
  %58 = load i64, ptr %57, align 8, !tbaa !96
  %59 = trunc i64 %58 to i32
  %60 = add i32 %56, %59
  %61 = getelementptr inbounds nuw i8, ptr %55, i64 4
  store i32 %60, ptr %61, align 4, !tbaa !71
  br i1 %.not21, label %._crit_edge20, label %.lr.ph19

.lr.ph19:                                         ; preds = %._crit_edge, %.lr.ph19
  %indvars.iv24 = phi i64 [ %indvars.iv.next25, %.lr.ph19 ], [ 0, %._crit_edge ]
  %62 = getelementptr inbounds nuw [2 x i32], ptr %2, i64 %indvars.iv24
  call void @_ZN6LibRaw19smal_decode_segmentEPA2_ji(ptr noundef nonnull align 8 dereferenceable(767680) %0, ptr noundef nonnull %62, i32 noundef %41)
  %indvars.iv.next25 = add nuw nsw i64 %indvars.iv24, 1
  %exitcond28.not = icmp eq i64 %indvars.iv.next25, %54
  br i1 %exitcond28.not, label %._crit_edge20, label %.lr.ph19, !llvm.loop !98

._crit_edge20:                                    ; preds = %.lr.ph19, %._crit_edge
  %.not = icmp eq i32 %41, 0
  br i1 %.not, label %64, label %63

63:                                               ; preds = %._crit_edge20
  tail call void @_ZN6LibRaw10fill_holesEi(ptr noundef nonnull align 8 dereferenceable(767680) %0, i32 noundef %41)
  br label %64

64:                                               ; preds = %63, %._crit_edge20
  call void @llvm.lifetime.end.p0(i64 2048, ptr nonnull %2) #8
  ret void
}